target datalayout = "e-m:e-p270:32:32-p271:32:32-p272:64:64-i64:64-i128:128-f80:128-n8:16:32:64-S128"
target triple = "x86_64-pc-linux-gnu"

%"class.gmx::AnalysisDataHandle" = type { ptr }
%"class.gmx::internal::AnalysisDataHandleImpl" = type { ptr, ptr }
%"class.gmx::AnalysisDataStorageFrame" = type <{ ptr, %"class.std::vector.44", i32, i32, i32, i8, [3 x i8] }>
%"class.std::vector.44" = type { %"struct.std::_Vector_base.45" }
%"struct.std::_Vector_base.45" = type { %"struct.std::_Vector_base<gmx::AnalysisDataValue, std::allocator<gmx::AnalysisDataValue>>::_Vector_impl" }
%"struct.std::_Vector_base<gmx::AnalysisDataValue, std::allocator<gmx::AnalysisDataValue>>::_Vector_impl" = type { %"struct.std::_Vector_base<gmx::AnalysisDataValue, std::allocator<gmx::AnalysisDataValue>>::_Vector_impl_data" }
%"struct.std::_Vector_base<gmx::AnalysisDataValue, std::allocator<gmx::AnalysisDataValue>>::_Vector_impl_data" = type { ptr, ptr, ptr }
%"class.gmx::AnalysisDataValue" = type { float, float, %"class.gmx::FlagsTemplate" }
%"class.gmx::FlagsTemplate" = type { i64 }
%class.anon.61 = type { i8 }
%class.anon.63 = type { i8 }

@.str.2 = private unnamed_addr constant [135 x i8] c"generated/home/dtcxzyw/WorkSpace/Projects/compilers/llvm-opt-benchmark/bench/gromacs/gromacs/src/gromacs/analysisdata/analysisdata.cpp\00", align 1
@.str.9 = private unnamed_addr constant [17 x i8] c"impl_ != nullptr\00", align 1
@.str.10 = private unnamed_addr constant [25 x i8] c"Invalid data handle used\00", align 1
@.str.13 = private unnamed_addr constant [32 x i8] c"impl_->currentFrame_ != nullptr\00", align 1
@"__PRETTY_FUNCTION__._ZZN3gmx18AnalysisDataHandle9setPointsEiiPKfbENK3$_0clEv" = private unnamed_addr constant [109 x i8] c"auto gmx::AnalysisDataHandle::setPoints(int, int, const real *, bool)::(anonymous class)::operator()() const\00", align 1
@.str.16 = private unnamed_addr constant [48 x i8] c"setPoints() called without calling startFrame()\00", align 1

; Function Attrs: mustprogress nounwind uwtable
define linkonce_odr void @_ZN3gmx13FlagsTemplateINS_17AnalysisDataValue4FlagEE5clearES2_(ptr noundef nonnull align 8 dereferenceable(8) %0, i64 noundef %1) #0 comdat align 2 {
  %3 = alloca ptr, align 8
  %4 = alloca i64, align 8
  store ptr %0, ptr %3, align 8, !tbaa !137
  store i64 %1, ptr %4, align 8, !tbaa !139
  %5 = load ptr, ptr %3, align 8
  %6 = load i64, ptr %4, align 8, !tbaa !139
  %7 = xor i64 %6, -1
  %8 = getelementptr inbounds nuw %"class.gmx::FlagsTemplate", ptr %5, i32 0, i32 0
  %9 = load i64, ptr %8, align 8, !tbaa !141
  %10 = and i64 %9, %7
  store i64 %10, ptr %8, align 8, !tbaa !141
  ret void
}

; Function Attrs: mustprogress uwtable
define linkonce_odr void @_ZN3gmx13FlagsTemplateINS_17AnalysisDataValue4FlagEE3setES2_b(ptr noundef nonnull align 8 dereferenceable(8) %0, i64 noundef %1, i1 noundef zeroext %2) #1 comdat align 2 {
  %4 = alloca ptr, align 8
  %5 = alloca i64, align 8
  %6 = alloca i8, align 1
  store ptr %0, ptr %4, align 8, !tbaa !137
  store i64 %1, ptr %5, align 8, !tbaa !139
  %7 = zext i1 %2 to i8
  store i8 %7, ptr %6, align 1, !tbaa !85
  %8 = load ptr, ptr %4, align 8
  %9 = load i8, ptr %6, align 1, !tbaa !85, !range !87, !noundef !88
  %10 = trunc i8 %9 to i1
  br i1 %10, label %11, label %13

11:                                               ; preds = %3
  %12 = load i64, ptr %5, align 8, !tbaa !139
  call void @_ZN3gmx13FlagsTemplateINS_17AnalysisDataValue4FlagEE3setES2_(ptr noundef nonnull align 8 dereferenceable(8) %8, i64 noundef %12)
  br label %15

13:                                               ; preds = %3
  %14 = load i64, ptr %5, align 8, !tbaa !139
  call void @_ZN3gmx13FlagsTemplateINS_17AnalysisDataValue4FlagEE5clearES2_(ptr noundef nonnull align 8 dereferenceable(8) %8, i64 noundef %14)
  br label %15

15:                                               ; preds = %13, %11
  ret void
}

; Function Attrs: mustprogress nounwind uwtable
define linkonce_odr void @_ZN3gmx13FlagsTemplateINS_17AnalysisDataValue4FlagEE3setES2_(ptr noundef nonnull align 8 dereferenceable(8) %0, i64 noundef %1) #0 comdat align 2 {
  %3 = alloca ptr, align 8
  %4 = alloca i64, align 8
  store ptr %0, ptr %3, align 8, !tbaa !137
  store i64 %1, ptr %4, align 8, !tbaa !139
  %5 = load ptr, ptr %3, align 8
  %6 = load i64, ptr %4, align 8, !tbaa !139
  %7 = getelementptr inbounds nuw %"class.gmx::FlagsTemplate", ptr %5, i32 0, i32 0
  %8 = load i64, ptr %7, align 8, !tbaa !141
  %9 = or i64 %8, %6
  store i64 %9, ptr %7, align 8, !tbaa !141
  ret void
}

; Function Attrs: mustprogress uwtable
define linkonce_odr void @_ZN3gmx17AnalysisDataValue8setValueEfb(ptr noundef nonnull align 8 dereferenceable(16) %0, float noundef %1, i1 noundef zeroext %2) #1 comdat align 2 {
  %4 = alloca ptr, align 8
  %5 = alloca float, align 4
  %6 = alloca i8, align 1
  store ptr %0, ptr %4, align 8, !tbaa !133
  store float %1, ptr %5, align 4, !tbaa !117
  %7 = zext i1 %2 to i8
  store i8 %7, ptr %6, align 1, !tbaa !85
  %8 = load ptr, ptr %4, align 8
  %9 = load float, ptr %5, align 4, !tbaa !117
  %10 = getelementptr inbounds nuw %"class.gmx::AnalysisDataValue", ptr %8, i32 0, i32 0
  store float %9, ptr %10, align 8, !tbaa !134
  %11 = getelementptr inbounds nuw %"class.gmx::AnalysisDataValue", ptr %8, i32 0, i32 2
  call void @_ZN3gmx13FlagsTemplateINS_17AnalysisDataValue4FlagEE3setES2_(ptr noundef nonnull align 8 dereferenceable(8) %11, i64 noundef 1)
  %12 = getelementptr inbounds nuw %"class.gmx::AnalysisDataValue", ptr %8, i32 0, i32 2
  %13 = load i8, ptr %6, align 1, !tbaa !85, !range !87, !noundef !88
  %14 = trunc i8 %13 to i1
  call void @_ZN3gmx13FlagsTemplateINS_17AnalysisDataValue4FlagEE3setES2_b(ptr noundef nonnull align 8 dereferenceable(8) %12, i64 noundef 4, i1 noundef zeroext %14)
  ret void
}

; Function Attrs: mustprogress nounwind uwtable
define linkonce_odr noundef nonnull align 8 dereferenceable(16) ptr @_ZNSt6vectorIN3gmx17AnalysisDataValueESaIS1_EEixEm(ptr noundef nonnull align 8 dereferenceable(24) %0, i64 noundef %1) #0 comdat align 2 {
  %3 = alloca ptr, align 8
  %4 = alloca i64, align 8
  store ptr %0, ptr %3, align 8, !tbaa !130
  store i64 %1, ptr %4, align 8, !tbaa !76
  %5 = load ptr, ptr %3, align 8
  %6 = getelementptr inbounds nuw %"struct.std::_Vector_base.45", ptr %5, i32 0, i32 0
  %7 = getelementptr inbounds nuw %"struct.std::_Vector_base<gmx::AnalysisDataValue, std::allocator<gmx::AnalysisDataValue>>::_Vector_impl_data", ptr %6, i32 0, i32 0
  %8 = load ptr, ptr %7, align 8, !tbaa !132
  %9 = load i64, ptr %4, align 8, !tbaa !76
  %10 = getelementptr inbounds nuw %"class.gmx::AnalysisDataValue", ptr %8, i64 %9
  ret ptr %10
}

; Function Attrs: mustprogress uwtable
define linkonce_odr void @_ZN3gmx24AnalysisDataStorageFrame8setValueEifb(ptr noundef nonnull align 8 dereferenceable(45) %0, i32 noundef %1, float noundef %2, i1 noundef zeroext %3) #1 comdat align 2 {
  %5 = alloca ptr, align 8
  %6 = alloca i32, align 4
  %7 = alloca float, align 4
  %8 = alloca i8, align 1
  store ptr %0, ptr %5, align 8, !tbaa !120
  store i32 %1, ptr %6, align 4, !tbaa !9
  store float %2, ptr %7, align 4, !tbaa !117
  %9 = zext i1 %3 to i8
  store i8 %9, ptr %8, align 1, !tbaa !85
  %10 = load ptr, ptr %5, align 8
  %11 = getelementptr inbounds nuw %"class.gmx::AnalysisDataStorageFrame", ptr %10, i32 0, i32 1
  %12 = getelementptr inbounds nuw %"class.gmx::AnalysisDataStorageFrame", ptr %10, i32 0, i32 3
  %13 = load i32, ptr %12, align 4, !tbaa !121
  %14 = load i32, ptr %6, align 4, !tbaa !9
  %15 = add nsw i32 %13, %14
  %16 = sext i32 %15 to i64
  %17 = call noundef nonnull align 8 dereferenceable(16) ptr @_ZNSt6vectorIN3gmx17AnalysisDataValueESaIS1_EEixEm(ptr noundef nonnull align 8 dereferenceable(24) %11, i64 noundef %16) #13
  %18 = load float, ptr %7, align 4, !tbaa !117
  %19 = load i8, ptr %8, align 1, !tbaa !85, !range !87, !noundef !88
  %20 = trunc i8 %19 to i1
  call void @_ZN3gmx17AnalysisDataValue8setValueEfb(ptr noundef nonnull align 8 dereferenceable(16) %17, float noundef %18, i1 noundef zeroext %20)
  %21 = getelementptr inbounds nuw %"class.gmx::AnalysisDataStorageFrame", ptr %10, i32 0, i32 5
  store i8 1, ptr %21, align 4, !tbaa !129
  ret void
}

; Function Attrs: inlinehint mustprogress uwtable
define internal void @"_ZZN3gmx18AnalysisDataHandle9setPointsEiiPKfbENK3$_1clEv"(ptr noundef nonnull align 1 dereferenceable(1) %0) #4 align 2 {
  %2 = alloca ptr, align 8
  store ptr %0, ptr %2, align 8, !tbaa !78
  call void @_ZN3gmx8internal13assertHandlerEPKcS2_S2_S2_i(ptr noundef @.str.13, ptr noundef @.str.16, ptr noundef @"__PRETTY_FUNCTION__._ZZN3gmx18AnalysisDataHandle9setPointsEiiPKfbENK3$_0clEv", ptr noundef @.str.2, i32 noundef 258) #17
  unreachable
}

; Function Attrs: inlinehint mustprogress uwtable
define internal void @"_ZZN3gmx18AnalysisDataHandle9setPointsEiiPKfbENK3$_0clEv"(ptr noundef nonnull align 1 dereferenceable(1) %0) #4 align 2 {
  %2 = alloca ptr, align 8
  store ptr %0, ptr %2, align 8, !tbaa !78
  call void @_ZN3gmx8internal13assertHandlerEPKcS2_S2_S2_i(ptr noundef @.str.9, ptr noundef @.str.10, ptr noundef @"__PRETTY_FUNCTION__._ZZN3gmx18AnalysisDataHandle9setPointsEiiPKfbENK3$_0clEv", ptr noundef @.str.2, i32 noundef 256) #17
  unreachable
}

; Function Attrs: mustprogress uwtable
define void @_ZN3gmx18AnalysisDataHandle9setPointsEiiPKfb(ptr noundef nonnull align 8 dereferenceable(8) %0, i32 noundef %1, i32 noundef %2, ptr noundef %3, i1 noundef zeroext %4) #1 align 2 {
  %6 = alloca ptr, align 8
  %7 = alloca i32, align 4
  %8 = alloca i32, align 4
  %9 = alloca ptr, align 8
  %10 = alloca i8, align 1
  %11 = alloca %class.anon.61, align 1
  %12 = alloca %class.anon.63, align 1
  %13 = alloca i32, align 4
  store ptr %0, ptr %6, align 8, !tbaa !115
  store i32 %1, ptr %7, align 4, !tbaa !9
  store i32 %2, ptr %8, align 4, !tbaa !9
  store ptr %3, ptr %9, align 8, !tbaa !143
  %14 = zext i1 %4 to i8
  store i8 %14, ptr %10, align 1, !tbaa !85
  %15 = load ptr, ptr %6, align 8
  %16 = getelementptr inbounds nuw %"class.gmx::AnalysisDataHandle", ptr %15, i32 0, i32 0
  %17 = load ptr, ptr %16, align 8, !tbaa !111
  %18 = icmp ne ptr %17, null
  call void @llvm.lifetime.start.p0(i64 1, ptr %11) #13
  br i1 %18, label %19, label %20

19:                                               ; preds = %5
  br label %21

20:                                               ; preds = %5
  call void @"_ZZN3gmx18AnalysisDataHandle9setPointsEiiPKfbENK3$_0clEv"(ptr noundef nonnull align 1 dereferenceable(1) %11)
  br label %21

21:                                               ; preds = %20, %19
  call void @llvm.lifetime.end.p0(i64 1, ptr %11) #13
  %22 = getelementptr inbounds nuw %"class.gmx::AnalysisDataHandle", ptr %15, i32 0, i32 0
  %23 = load ptr, ptr %22, align 8, !tbaa !111
  %24 = getelementptr inbounds nuw %"class.gmx::internal::AnalysisDataHandleImpl", ptr %23, i32 0, i32 1
  %25 = load ptr, ptr %24, align 8, !tbaa !93
  %26 = icmp ne ptr %25, null
  call void @llvm.lifetime.start.p0(i64 1, ptr %12) #13
  br i1 %26, label %27, label %28

27:                                               ; preds = %21
  br label %29

28:                                               ; preds = %21
  call void @"_ZZN3gmx18AnalysisDataHandle9setPointsEiiPKfbENK3$_1clEv"(ptr noundef nonnull align 1 dereferenceable(1) %12)
  br label %29

29:                                               ; preds = %28, %27
  call void @llvm.lifetime.end.p0(i64 1, ptr %12) #13
  call void @llvm.lifetime.start.p0(i64 4, ptr %13) #13
  store i32 0, ptr %13, align 4, !tbaa !9
  br label %30

30:                                               ; preds = %50, %29
  %31 = load i32, ptr %13, align 4, !tbaa !9
  %32 = load i32, ptr %8, align 4, !tbaa !9
  %33 = icmp slt i32 %31, %32
  br i1 %33, label %35, label %34

34:                                               ; preds = %30
  call void @llvm.lifetime.end.p0(i64 4, ptr %13) #13
  br label %53

35:                                               ; preds = %30
  %36 = getelementptr inbounds nuw %"class.gmx::AnalysisDataHandle", ptr %15, i32 0, i32 0
  %37 = load ptr, ptr %36, align 8, !tbaa !111
  %38 = getelementptr inbounds nuw %"class.gmx::internal::AnalysisDataHandleImpl", ptr %37, i32 0, i32 1
  %39 = load ptr, ptr %38, align 8, !tbaa !93
  %40 = load i32, ptr %7, align 4, !tbaa !9
  %41 = load i32, ptr %13, align 4, !tbaa !9
  %42 = add nsw i32 %40, %41
  %43 = load ptr, ptr %9, align 8, !tbaa !143
  %44 = load i32, ptr %13, align 4, !tbaa !9
  %45 = sext i32 %44 to i64
  %46 = getelementptr inbounds float, ptr %43, i64 %45
  %47 = load float, ptr %46, align 4, !tbaa !117
  %48 = load i8, ptr %10, align 1, !tbaa !85, !range !87, !noundef !88
  %49 = trunc i8 %48 to i1
  call void @_ZN3gmx24AnalysisDataStorageFrame8setValueEifb(ptr noundef nonnull align 8 dereferenceable(45) %39, i32 noundef %42, float noundef %47, i1 noundef zeroext %49)
  br label %50

50:                                               ; preds = %35
  %51 = load i32, ptr %13, align 4, !tbaa !9
  %52 = add nsw i32 %51, 1
  store i32 %52, ptr %13, align 4, !tbaa !9
  br label %30, !llvm.loop !145

53:                                               ; preds = %34
  ret void
}