; Function Attrs: mustprogress uwtable
define void @_ZN3gmx18AnalysisDataHandle9setPointsEiiPKfb(ptr noundef nonnull readonly align 8 captures(none) dereferenceable(8) %0, i32 noundef %1, i32 noundef %2, ptr noundef readonly captures(none) %3, i1 noundef zeroext %4) local_unnamed_addr #1 align 2 {
  %6 = load ptr, ptr %0, align 8, !tbaa !37
  %.not = icmp eq ptr %6, null
  br i1 %.not, label %7, label %8

7:                                                ; preds = %5
  tail call void @_ZN3gmx8internal13assertHandlerEPKcS2_S2_S2_i(ptr noundef nonnull @.str.9, ptr noundef nonnull @.str.10, ptr noundef nonnull @"__PRETTY_FUNCTION__._ZZN3gmx18AnalysisDataHandle9setPointsEiiPKfbENK3$_0clEv", ptr noundef nonnull @.str.2, i32 noundef 256) #15
  unreachable

8:                                                ; preds = %5
  %9 = getelementptr inbounds nuw i8, ptr %6, i64 8
  %10 = load ptr, ptr %9, align 8, !tbaa !26
  %.not8 = icmp eq ptr %10, null
  br i1 %.not8, label %25, label %.preheader

.preheader:                                       ; preds = %8
  %11 = icmp sgt i32 %2, 0
  br i1 %11, label %.lr.ph, label %26

.lr.ph:                                           ; preds = %.preheader
  %12 = getelementptr inbounds nuw i8, ptr %10, i64 8
  %13 = getelementptr inbounds nuw i8, ptr %10, i64 36
  %14 = load i32, ptr %13, align 4, !tbaa !40
  %invariant.op = add i32 %1, %14
  %15 = load ptr, ptr %12, align 8, !tbaa !49
  %16 = getelementptr inbounds nuw i8, ptr %10, i64 44
  %wide.trip.count16 = zext nneg i32 %2 to i64
  br i1 %4, label %.lr.ph.split.us, label %.lr.ph.split

.lr.ph.split.us:                                  ; preds = %.lr.ph, %.lr.ph.split.us
  %indvars.iv13 = phi i64 [ %indvars.iv.next14, %.lr.ph.split.us ], [ 0, %.lr.ph ]
  %17 = getelementptr inbounds nuw float, ptr %3, i64 %indvars.iv13
  %18 = load float, ptr %17, align 4, !tbaa !58
  %19 = trunc nuw nsw i64 %indvars.iv13 to i32
  %.reass.us = add i32 %invariant.op, %19
  %20 = sext i32 %.reass.us to i64
  %21 = getelementptr inbounds nuw %"class.gmx::AnalysisDataValue", ptr %15, i64 %20
  store float %18, ptr %21, align 8, !tbaa !50
  %22 = getelementptr inbounds nuw i8, ptr %21, i64 8
  %23 = load i64, ptr %22, align 8, !tbaa !55
  %24 = or i64 %23, 5
  store i64 %24, ptr %22, align 8, !tbaa !55
  %indvars.iv.next14 = add nuw nsw i64 %indvars.iv13, 1
  %exitcond17.not = icmp eq i64 %indvars.iv.next14, %wide.trip.count16
  br i1 %exitcond17.not, label %._crit_edge, label %.lr.ph.split.us, !llvm.loop !59

25:                                               ; preds = %8
  tail call void @_ZN3gmx8internal13assertHandlerEPKcS2_S2_S2_i(ptr noundef nonnull @.str.13, ptr noundef nonnull @.str.16, ptr noundef nonnull @"__PRETTY_FUNCTION__._ZZN3gmx18AnalysisDataHandle9setPointsEiiPKfbENK3$_0clEv", ptr noundef nonnull @.str.2, i32 noundef 258) #15
  unreachable

._crit_edge:                                      ; preds = %.lr.ph.split, %.lr.ph.split.us
  store i8 1, ptr %16, align 4, !tbaa !56
  br label %26

26:                                               ; preds = %._crit_edge, %.preheader
  ret void

.lr.ph.split:                                     ; preds = %.lr.ph, %.lr.ph.split
  %indvars.iv = phi i64 [ %indvars.iv.next, %.lr.ph.split ], [ 0, %.lr.ph ]
  %27 = getelementptr inbounds nuw float, ptr %3, i64 %indvars.iv
  %28 = load float, ptr %27, align 4, !tbaa !58
  %29 = trunc nuw nsw i64 %indvars.iv to i32
  %.reass = add i32 %invariant.op, %29
  %30 = sext i32 %.reass to i64
  %31 = getelementptr inbounds nuw %"class.gmx::AnalysisDataValue", ptr %15, i64 %30
  store float %28, ptr %31, align 8, !tbaa !50
  %32 = getelementptr inbounds nuw i8, ptr %31, i64 8
  %33 = load i64, ptr %32, align 8, !tbaa !55
  %34 = and i64 %33, -6
  %35 = or disjoint i64 %34, 1
  store i64 %35, ptr %32, align 8, !tbaa !55
  %indvars.iv.next = add nuw nsw i64 %indvars.iv, 1
  %exitcond.not = icmp eq i64 %indvars.iv.next, %wide.trip.count16
  br i1 %exitcond.not, label %._crit_edge, label %.lr.ph.split, !llvm.loop !59
}